; Function Attrs: mustprogress uwtable
define noundef nonnull ptr @_ZN8nanobind6detail8obj_op_1EP7_objectPFS2_S2_E(ptr noundef %0, ptr noundef readonly captures(none) %1) local_unnamed_addr #15 {
  %3 = tail call noundef ptr %1(ptr noundef %0)
  %.not = icmp eq ptr %3, null
  br i1 %.not, label %4, label %5

4:                                                ; preds = %2
  tail call void @_ZN8nanobind6detail18raise_python_errorEv() #28
  unreachable

5:                                                ; preds = %2
  ret ptr %3
}